; Function Attrs: mustprogress uwtable
define void @_ZN2cv6detail7GArrayUC2ERKNS0_9VectorRefE(ptr noundef nonnull writeonly align 8 captures(none) dereferenceable(32) %0, ptr noundef nonnull readonly align 8 captures(none) dereferenceable(20) %1) unnamed_addr #3 align 2 personality ptr @__gxx_personality_v0 {
  %3 = alloca %"class.cv::util::variant", align 8
  %4 = tail call noalias noundef nonnull dereferenceable(184) ptr @_Znwm(i64 noundef 184) #17
  store i64 2, ptr %3, align 8, !tbaa !27
  %5 = getelementptr inbounds nuw i8, ptr %3, i64 8
  %6 = load ptr, ptr %1, align 8, !tbaa !29
  store ptr %6, ptr %5, align 8, !tbaa !29
  %7 = getelementptr inbounds nuw i8, ptr %3, i64 16
  %8 = getelementptr inbounds nuw i8, ptr %1, i64 8
  %9 = load ptr, ptr %8, align 8, !tbaa !14
  store ptr %9, ptr %7, align 8, !tbaa !14
  %.not.i.i.i.i.i.i = icmp eq ptr %9, null
  br i1 %.not.i.i.i.i.i.i, label %18, label %10

10:                                               ; preds = %2
  %11 = getelementptr inbounds nuw i8, ptr %9, i64 8
  %12 = load i8, ptr @__libc_single_threaded, align 1, !tbaa !24
  %.not.i.i.i.i.i.i.i = icmp eq i8 %12, 0
  br i1 %.not.i.i.i.i.i.i.i, label %16, label %13

13:                                               ; preds = %10
  %14 = load i32, ptr %11, align 4, !tbaa !25
  %15 = add nsw i32 %14, 1
  store i32 %15, ptr %11, align 4, !tbaa !25
  br label %18

16:                                               ; preds = %10
  %17 = atomicrmw volatile add ptr %11, i32 1 acq_rel, align 4
  br label %18

18:                                               ; preds = %16, %13, %2
  %19 = getelementptr inbounds nuw i8, ptr %3, i64 24
  %20 = getelementptr inbounds nuw i8, ptr %1, i64 16
  %21 = load i32, ptr %20, align 8, !tbaa !32
  store i32 %21, ptr %19, align 8, !tbaa !32
  invoke void @_ZN2cv7GOriginC1ENS_6GShapeENS_4util7variantIJNS2_9monostateENS_7Scalar_IdEENS_6detail9VectorRefENS_3MatEEEE(ptr noundef nonnull align 8 dereferenceable(180) %4, i32 noundef 2, ptr noundef nonnull %3)
          to label %22 unwind label %46

22:                                               ; preds = %18
  store ptr %4, ptr %0, align 8, !tbaa !8
  %23 = getelementptr inbounds nuw i8, ptr %0, i64 8
  store ptr null, ptr %23, align 8, !tbaa !14
  %24 = invoke noalias noundef nonnull dereferenceable(24) ptr @_Znwm(i64 noundef 24) #17
          to label %35 unwind label %25

25:                                               ; preds = %22
  %26 = landingpad { ptr, i32 }
          catch ptr null
  %27 = extractvalue { ptr, i32 } %26, 0
  %28 = call ptr @__cxa_begin_catch(ptr %27) #18
  call void @_ZN2cv7GOriginD2Ev(ptr noundef nonnull align 8 dereferenceable(180) %4) #18
  call void @_ZdlPv(ptr noundef nonnull %4) #19
  invoke void @__cxa_rethrow() #20
          to label %34 unwind label %29

29:                                               ; preds = %25
  %30 = landingpad { ptr, i32 }
          cleanup
  invoke void @__cxa_end_catch()
          to label %.body unwind label %31

31:                                               ; preds = %29
  %32 = landingpad { ptr, i32 }
          catch ptr null
  %33 = extractvalue { ptr, i32 } %32, 0
  call void @__clang_call_terminate(ptr %33) #21
  unreachable

34:                                               ; preds = %25
  unreachable

35:                                               ; preds = %22
  %36 = getelementptr inbounds nuw i8, ptr %24, i64 8
  store i32 1, ptr %36, align 8, !tbaa !15
  %37 = getelementptr inbounds nuw i8, ptr %24, i64 12
  store i32 1, ptr %37, align 4, !tbaa !18
  store ptr getelementptr inbounds nuw inrange(-16, 40) (i8, ptr @_ZTVSt15_Sp_counted_ptrIPN2cv7GOriginELN9__gnu_cxx12_Lock_policyE2EE, i64 16), ptr %24, align 8, !tbaa !19
  %38 = getelementptr inbounds nuw i8, ptr %24, i64 16
  store ptr %4, ptr %38, align 8, !tbaa !21
  store ptr %24, ptr %23, align 8, !tbaa !14
  %39 = load i64, ptr %3, align 8, !tbaa !27
  %40 = getelementptr inbounds nuw [4 x ptr], ptr @constinit.2, i64 0, i64 %39
  %41 = load ptr, ptr %40, align 8, !tbaa !23
  invoke void %41(ptr noundef nonnull %5)
          to label %_ZN2cv4util7variantIJNS0_9monostateENS_7Scalar_IdEENS_6detail9VectorRefENS_3MatEEED2Ev.exit unwind label %42

42:                                               ; preds = %35
  %43 = landingpad { ptr, i32 }
          catch ptr null
  %44 = extractvalue { ptr, i32 } %43, 0
  call void @__clang_call_terminate(ptr %44) #21
  unreachable

_ZN2cv4util7variantIJNS0_9monostateENS_7Scalar_IdEENS_6detail9VectorRefENS_3MatEEED2Ev.exit: ; preds = %35
  %45 = getelementptr inbounds nuw i8, ptr %0, i64 16
  call void @llvm.memset.p0.i64(ptr noundef nonnull align 8 dereferenceable(16) %45, i8 0, i64 16, i1 false)
  ret void

46:                                               ; preds = %18
  %47 = landingpad { ptr, i32 }
          cleanup
  br label %.body

.body:                                            ; preds = %29, %46
  %.0.lpad-body = phi i1 [ true, %46 ], [ false, %29 ]
  %eh.lpad-body = phi { ptr, i32 } [ %47, %46 ], [ %30, %29 ]
  %48 = load i64, ptr %3, align 8, !tbaa !27
  %49 = getelementptr inbounds nuw [4 x ptr], ptr @constinit.2, i64 0, i64 %48
  %50 = load ptr, ptr %49, align 8, !tbaa !23
  invoke void %50(ptr noundef nonnull %5)
          to label %_ZN2cv4util7variantIJNS0_9monostateENS_7Scalar_IdEENS_6detail9VectorRefENS_3MatEEED2Ev.exit7 unwind label %51

51:                                               ; preds = %.body
  %52 = landingpad { ptr, i32 }
          catch ptr null
  %53 = extractvalue { ptr, i32 } %52, 0
  call void @__clang_call_terminate(ptr %53) #21
  unreachable

_ZN2cv4util7variantIJNS0_9monostateENS_7Scalar_IdEENS_6detail9VectorRefENS_3MatEEED2Ev.exit7: ; preds = %.body
  br i1 %.0.lpad-body, label %54, label %55

54:                                               ; preds = %_ZN2cv4util7variantIJNS0_9monostateENS_7Scalar_IdEENS_6detail9VectorRefENS_3MatEEED2Ev.exit7
  call void @_ZdlPv(ptr noundef nonnull %4) #19
  br label %55

55:                                               ; preds = %_ZN2cv4util7variantIJNS0_9monostateENS_7Scalar_IdEENS_6detail9VectorRefENS_3MatEEED2Ev.exit7, %54
  resume { ptr, i32 } %eh.lpad-body
}